target datalayout = "e-m:e-p270:32:32-p271:32:32-p272:64:64-i64:64-i128:128-f80:128-n8:16:32:64-S128"
target triple = "x86_64-pc-linux-gnu"

%struct.__va_list_tag = type { i32, i32, ptr, ptr }

; Function Attrs: nounwind uwtable
define internal zeroext i1 @HeadMatchesArray(i1 noundef zeroext %0, i32 noundef %1, ptr noundef %2, i32 noundef %3, ptr noundef %4) #0 {
  %6 = alloca i1, align 1
  %7 = alloca i8, align 1
  %8 = alloca i32, align 4
  %9 = alloca ptr, align 8
  %10 = alloca i32, align 4
  %11 = alloca ptr, align 8
  %12 = alloca i32, align 4
  %13 = alloca i32, align 4
  %14 = alloca ptr, align 8
  %15 = zext i1 %0 to i8
  store i8 %15, ptr %7, align 1
  store i32 %1, ptr %8, align 4
  store ptr %2, ptr %9, align 8
  store i32 %3, ptr %10, align 4
  store ptr %4, ptr %11, align 8
  %16 = load i32, ptr %8, align 4
  %17 = load i32, ptr %10, align 4
  %18 = icmp slt i32 %16, %17
  br i1 %18, label %19, label %20

19:                                               ; preds = %5
  store i1 false, ptr %6, align 1
  br label %55

20:                                               ; preds = %5
  call void @llvm.lifetime.start.p0(i64 4, ptr %12) #8
  store i32 0, ptr %12, align 4
  br label %21

21:                                               ; preds = %49, %20
  %22 = load i32, ptr %12, align 4
  %23 = load i32, ptr %10, align 4
  %24 = icmp slt i32 %22, %23
  br i1 %24, label %26, label %25

25:                                               ; preds = %21
  store i32 2, ptr %13, align 4
  br label %52

26:                                               ; preds = %21
  call void @llvm.lifetime.start.p0(i64 8, ptr %14) #8
  %27 = load ptr, ptr %11, align 8
  %28 = load i32, ptr %12, align 4
  %29 = sext i32 %28 to i64
  %30 = getelementptr inbounds ptr, ptr %27, i64 %29
  %31 = load ptr, ptr %30, align 8
  store ptr %31, ptr %14, align 8
  %32 = load ptr, ptr %14, align 8
  %33 = load ptr, ptr %9, align 8
  %34 = load i32, ptr %8, align 4
  %35 = load i32, ptr %12, align 4
  %36 = sub i32 %34, %35
  %37 = sub i32 %36, 1
  %38 = sext i32 %37 to i64
  %39 = getelementptr inbounds ptr, ptr %33, i64 %38
  %40 = load ptr, ptr %39, align 8
  %41 = load i8, ptr %7, align 1, !range !6, !noundef !7
  %42 = trunc i8 %41 to i1
  %43 = call zeroext i1 @word_matches(ptr noundef %32, ptr noundef %40, i1 noundef zeroext %42)
  br i1 %43, label %45, label %44

44:                                               ; preds = %26
  store i1 false, ptr %6, align 1
  store i32 1, ptr %13, align 4
  br label %46

45:                                               ; preds = %26
  store i32 0, ptr %13, align 4
  br label %46

46:                                               ; preds = %45, %44
  call void @llvm.lifetime.end.p0(i64 8, ptr %14) #8
  %47 = load i32, ptr %13, align 4
  switch i32 %47, label %52 [
    i32 0, label %48
  ]

48:                                               ; preds = %46
  br label %49

49:                                               ; preds = %48
  %50 = load i32, ptr %12, align 4
  %51 = add i32 %50, 1
  store i32 %51, ptr %12, align 4
  br label %21, !llvm.loop !18

52:                                               ; preds = %46, %25
  call void @llvm.lifetime.end.p0(i64 4, ptr %12) #8
  %53 = load i32, ptr %13, align 4
  switch i32 %53, label %57 [
    i32 2, label %54
    i32 1, label %55
  ]

54:                                               ; preds = %52
  store i1 true, ptr %6, align 1
  br label %55

55:                                               ; preds = %54, %52, %19
  %56 = load i1, ptr %6, align 1
  ret i1 %56

57:                                               ; preds = %52
  unreachable
}

; Function Attrs: nounwind uwtable
define internal zeroext i1 @HeadMatchesImpl(i1 noundef zeroext %0, i32 noundef %1, ptr noundef %2, i32 noundef %3, ...) #0 {
  %5 = alloca i1, align 1
  %6 = alloca i8, align 1
  %7 = alloca i32, align 4
  %8 = alloca ptr, align 8
  %9 = alloca i32, align 4
  %10 = alloca [64 x ptr], align 16
  %11 = alloca [1 x %struct.__va_list_tag], align 16
  %12 = alloca i32, align 4
  %13 = alloca i32, align 4
  %14 = zext i1 %0 to i8
  store i8 %14, ptr %6, align 1
  store i32 %1, ptr %7, align 4
  store ptr %2, ptr %8, align 8
  store i32 %3, ptr %9, align 4
  call void @llvm.lifetime.start.p0(i64 512, ptr %10) #8
  call void @llvm.lifetime.start.p0(i64 24, ptr %11) #8
  %15 = load i32, ptr %7, align 4
  %16 = load i32, ptr %9, align 4
  %17 = icmp slt i32 %15, %16
  br i1 %17, label %18, label %19

18:                                               ; preds = %4
  store i1 false, ptr %5, align 1
  store i32 1, ptr %12, align 4
  br label %58

19:                                               ; preds = %4
  %20 = getelementptr inbounds [1 x %struct.__va_list_tag], ptr %11, i64 0, i64 0
  call void @llvm.va_start.p0(ptr %20)
  call void @llvm.lifetime.start.p0(i64 4, ptr %13) #8
  store i32 0, ptr %13, align 4
  br label %21

21:                                               ; preds = %46, %19
  %22 = load i32, ptr %13, align 4
  %23 = load i32, ptr %9, align 4
  %24 = icmp slt i32 %22, %23
  br i1 %24, label %26, label %25

25:                                               ; preds = %21
  store i32 2, ptr %12, align 4
  call void @llvm.lifetime.end.p0(i64 4, ptr %13) #8
  br label %49

26:                                               ; preds = %21
  %27 = getelementptr inbounds [1 x %struct.__va_list_tag], ptr %11, i64 0, i64 0
  %28 = getelementptr inbounds nuw %struct.__va_list_tag, ptr %27, i32 0, i32 0
  %29 = load i32, ptr %28, align 16
  %30 = icmp ule i32 %29, 40
  br i1 %30, label %31, label %36

31:                                               ; preds = %26
  %32 = getelementptr inbounds nuw %struct.__va_list_tag, ptr %27, i32 0, i32 3
  %33 = load ptr, ptr %32, align 16
  %34 = getelementptr i8, ptr %33, i32 %29
  %35 = add i32 %29, 8
  store i32 %35, ptr %28, align 16
  br label %40

36:                                               ; preds = %26
  %37 = getelementptr inbounds nuw %struct.__va_list_tag, ptr %27, i32 0, i32 2
  %38 = load ptr, ptr %37, align 8
  %39 = getelementptr i8, ptr %38, i32 8
  store ptr %39, ptr %37, align 8
  br label %40

40:                                               ; preds = %36, %31
  %41 = phi ptr [ %34, %31 ], [ %38, %36 ]
  %42 = load ptr, ptr %41, align 8
  %43 = load i32, ptr %13, align 4
  %44 = sext i32 %43 to i64
  %45 = getelementptr inbounds [64 x ptr], ptr %10, i64 0, i64 %44
  store ptr %42, ptr %45, align 8
  br label %46

46:                                               ; preds = %40
  %47 = load i32, ptr %13, align 4
  %48 = add i32 %47, 1
  store i32 %48, ptr %13, align 4
  br label %21, !llvm.loop !25

49:                                               ; preds = %25
  %50 = getelementptr inbounds [1 x %struct.__va_list_tag], ptr %11, i64 0, i64 0
  call void @llvm.va_end.p0(ptr %50)
  %51 = load i8, ptr %6, align 1, !range !6, !noundef !7
  %52 = trunc i8 %51 to i1
  %53 = load i32, ptr %7, align 4
  %54 = load ptr, ptr %8, align 8
  %55 = load i32, ptr %9, align 4
  %56 = getelementptr inbounds [64 x ptr], ptr %10, i64 0, i64 0
  %57 = call zeroext i1 @HeadMatchesArray(i1 noundef zeroext %52, i32 noundef %53, ptr noundef %54, i32 noundef %55, ptr noundef %56)
  store i1 %57, ptr %5, align 1
  store i32 1, ptr %12, align 4
  br label %58

58:                                               ; preds = %49, %18
  call void @llvm.lifetime.end.p0(i64 24, ptr %11) #8
  call void @llvm.lifetime.end.p0(i64 512, ptr %10) #8
  %59 = load i1, ptr %5, align 1
  ret i1 %59
}