; Function Attrs: nounwind uwtable
define internal noundef zeroext i1 @HeadMatchesImpl(i1 zeroext %0, i32 noundef %1, ptr noundef readonly captures(none) %2, i32 noundef range(i32 2, 4) %3, ...) unnamed_addr #0 {
  %5 = alloca [64 x ptr], align 16
  %6 = alloca [1 x %struct.__va_list_tag], align 16
  call void @llvm.lifetime.start.p0(i64 512, ptr nonnull %5) #11
  call void @llvm.lifetime.start.p0(i64 24, ptr nonnull %6) #11
  %7 = icmp slt i32 %1, %3
  br i1 %7, label %HeadMatchesArray.exit, label %8

8:                                                ; preds = %4
  call void @llvm.va_start.p0(ptr nonnull %6)
  %.promoted = load i32, ptr %6, align 16
  %9 = getelementptr inbounds nuw i8, ptr %6, i64 8
  %10 = getelementptr inbounds nuw i8, ptr %6, i64 16
  %11 = load ptr, ptr %10, align 16
  %.promoted15 = load ptr, ptr %9, align 8
  %wide.trip.count = zext nneg i32 %3 to i64
  br label %21

.preheader.i:                                     ; preds = %31
  call void @llvm.va_end.p0(ptr nonnull %6)
  br label %.lr.ph.i

.lr.ph.i:                                         ; preds = %.lr.ph.i, %.preheader.i
  %indvars.iv.i = phi i64 [ 0, %.preheader.i ], [ %indvars.iv.next.i, %.lr.ph.i ]
  %12 = getelementptr inbounds nuw ptr, ptr %5, i64 %indvars.iv.i
  %13 = load ptr, ptr %12, align 8
  %14 = trunc i64 %indvars.iv.i to i32
  %15 = xor i32 %14, -1
  %16 = add i32 %1, %15
  %17 = sext i32 %16 to i64
  %18 = getelementptr inbounds ptr, ptr %2, i64 %17
  %19 = load ptr, ptr %18, align 8
  %20 = call fastcc zeroext i1 @word_matches(ptr noundef %13, ptr noundef %19, i1 noundef zeroext false)
  %indvars.iv.next.i = add nuw nsw i64 %indvars.iv.i, 1
  %exitcond.not.i = icmp ne i64 %indvars.iv.next.i, %wide.trip.count
  %or.cond.not = select i1 %20, i1 %exitcond.not.i, i1 false
  br i1 %or.cond.not, label %.lr.ph.i, label %HeadMatchesArray.exit, !llvm.loop !9

21:                                               ; preds = %8, %31
  %indvars.iv = phi i64 [ 0, %8 ], [ %indvars.iv.next, %31 ]
  %22 = phi ptr [ %.promoted15, %8 ], [ %32, %31 ]
  %23 = phi i32 [ %.promoted, %8 ], [ %33, %31 ]
  %24 = icmp ult i32 %23, 41
  br i1 %24, label %25, label %29

25:                                               ; preds = %21
  %26 = zext nneg i32 %23 to i64
  %27 = getelementptr i8, ptr %11, i64 %26
  %28 = add nuw nsw i32 %23, 8
  store i32 %28, ptr %6, align 16
  br label %31

29:                                               ; preds = %21
  %30 = getelementptr i8, ptr %22, i64 8
  store ptr %30, ptr %9, align 8
  br label %31

31:                                               ; preds = %29, %25
  %32 = phi ptr [ %22, %25 ], [ %30, %29 ]
  %33 = phi i32 [ %28, %25 ], [ %23, %29 ]
  %34 = phi ptr [ %27, %25 ], [ %22, %29 ]
  %35 = load ptr, ptr %34, align 8
  %36 = getelementptr inbounds nuw [64 x ptr], ptr %5, i64 0, i64 %indvars.iv
  store ptr %35, ptr %36, align 8
  %indvars.iv.next = add nuw nsw i64 %indvars.iv, 1
  %exitcond.not = icmp eq i64 %indvars.iv.next, %wide.trip.count
  br i1 %exitcond.not, label %.preheader.i, label %21, !llvm.loop !25

HeadMatchesArray.exit:                            ; preds = %.lr.ph.i, %4
  %.010 = phi i1 [ false, %4 ], [ %20, %.lr.ph.i ]
  call void @llvm.lifetime.end.p0(i64 24, ptr nonnull %6) #11
  call void @llvm.lifetime.end.p0(i64 512, ptr nonnull %5) #11
  ret i1 %.010
}